target datalayout = "e-m:e-p270:32:32-p271:32:32-p272:64:64-i64:64-i128:128-f80:128-n8:16:32:64-S128"
target triple = "x86_64-unknown-linux-gnu"

%struct.of_dpa_flow_fill_context = type { ptr, i32 }
%struct.of_dpa = type { ptr, ptr, ptr, i32, i32 }

@.str = private unnamed_addr constant [38 x i8] c"../qemu/hw/net/rocker/rocker_of_dpa.c\00", align 1
@__func__.qmp_query_rocker_of_dpa_flows = private unnamed_addr constant [30 x i8] c"qmp_query_rocker_of_dpa_flows\00", align 1
@.str.1 = private unnamed_addr constant [20 x i8] c"rocker %s not found\00", align 1
@.str.2 = private unnamed_addr constant [36 x i8] c"rocker %s doesn't have OF-DPA world\00", align 1

; Function Attrs: nounwind sspstrong uwtable
define dso_local ptr @qmp_query_rocker_of_dpa_flows(ptr noundef %name, i1 noundef zeroext %has_tbl_id, i32 noundef %tbl_id, ptr noundef %errp) #0 {
entry:
  %retval = alloca ptr, align 8
  %name.addr = alloca ptr, align 8
  %has_tbl_id.addr = alloca i8, align 1
  %tbl_id.addr = alloca i32, align 4
  %errp.addr = alloca ptr, align 8
  %r = alloca ptr, align 8
  %w = alloca ptr, align 8
  %of_dpa = alloca ptr, align 8
  %fill_context = alloca %struct.of_dpa_flow_fill_context, align 8
  store ptr %name, ptr %name.addr, align 8
  %frombool = zext i1 %has_tbl_id to i8
  store i8 %frombool, ptr %has_tbl_id.addr, align 1
  store i32 %tbl_id, ptr %tbl_id.addr, align 4
  store ptr %errp, ptr %errp.addr, align 8
  %list = getelementptr inbounds %struct.of_dpa_flow_fill_context, ptr %fill_context, i32 0, i32 0
  store ptr null, ptr %list, align 8
  %tbl_id1 = getelementptr inbounds %struct.of_dpa_flow_fill_context, ptr %fill_context, i32 0, i32 1
  %0 = load i32, ptr %tbl_id.addr, align 4
  store i32 %0, ptr %tbl_id1, align 8
  %1 = load ptr, ptr %name.addr, align 8
  %call = call ptr @rocker_find(ptr noundef %1)
  store ptr %call, ptr %r, align 8
  %2 = load ptr, ptr %r, align 8
  %tobool = icmp ne ptr %2, null
  br i1 %tobool, label %if.end, label %if.then

if.then:                                          ; preds = %entry
  %3 = load ptr, ptr %errp.addr, align 8
  %4 = load ptr, ptr %name.addr, align 8
  call void (ptr, ptr, i32, ptr, ptr, ...) @error_setg_internal(ptr noundef %3, ptr noundef @.str, i32 noundef 2438, ptr noundef @__func__.qmp_query_rocker_of_dpa_flows, ptr noundef @.str.1, ptr noundef %4)
  store ptr null, ptr %retval, align 8
  br label %return

if.end:                                           ; preds = %entry
  %5 = load ptr, ptr %r, align 8
  %call2 = call ptr @rocker_get_world(ptr noundef %5, i32 noundef 0)
  store ptr %call2, ptr %w, align 8
  %6 = load ptr, ptr %w, align 8
  %tobool3 = icmp ne ptr %6, null
  br i1 %tobool3, label %if.end5, label %if.then4

if.then4:                                         ; preds = %if.end
  %7 = load ptr, ptr %errp.addr, align 8
  %8 = load ptr, ptr %name.addr, align 8
  call void (ptr, ptr, i32, ptr, ptr, ...) @error_setg_internal(ptr noundef %7, ptr noundef @.str, i32 noundef 2444, ptr noundef @__func__.qmp_query_rocker_of_dpa_flows, ptr noundef @.str.2, ptr noundef %8)
  store ptr null, ptr %retval, align 8
  br label %return

if.end5:                                          ; preds = %if.end
  %9 = load ptr, ptr %w, align 8
  %call6 = call ptr @world_private(ptr noundef %9)
  store ptr %call6, ptr %of_dpa, align 8
  %10 = load ptr, ptr %of_dpa, align 8
  %flow_tbl = getelementptr inbounds %struct.of_dpa, ptr %10, i32 0, i32 1
  %11 = load ptr, ptr %flow_tbl, align 8
  call void @g_hash_table_foreach(ptr noundef %11, ptr noundef @of_dpa_flow_fill, ptr noundef %fill_context)
  %list7 = getelementptr inbounds %struct.of_dpa_flow_fill_context, ptr %fill_context, i32 0, i32 0
  %12 = load ptr, ptr %list7, align 8
  store ptr %12, ptr %retval, align 8
  br label %return

return:                                           ; preds = %if.end5, %if.then4, %if.then
  %13 = load ptr, ptr %retval, align 8
  ret ptr %13
}