; Function Attrs: nounwind sspstrong uwtable
define dso_local ptr @qmp_query_rocker_of_dpa_flows(ptr noundef %name, i1 noundef zeroext %has_tbl_id, i32 noundef %tbl_id, ptr noundef %errp) local_unnamed_addr #0 {
entry:
  %fill_context = alloca %struct.of_dpa_flow_fill_context, align 8
  store ptr null, ptr %fill_context, align 8
  %tbl_id1 = getelementptr inbounds nuw i8, ptr %fill_context, i64 8
  store i32 %tbl_id, ptr %tbl_id1, align 8
  %call = tail call ptr @rocker_find(ptr noundef %name) #18
  %tobool.not = icmp eq ptr %call, null
  br i1 %tobool.not, label %if.then, label %if.end

if.then:                                          ; preds = %entry
  tail call void (ptr, ptr, i32, ptr, ptr, ...) @error_setg_internal(ptr noundef %errp, ptr noundef nonnull @.str, i32 noundef 2438, ptr noundef nonnull @__func__.qmp_query_rocker_of_dpa_flows, ptr noundef nonnull @.str.1, ptr noundef %name) #18
  br label %return

if.end:                                           ; preds = %entry
  %call2 = tail call ptr @rocker_get_world(ptr noundef nonnull %call, i32 noundef 0) #18
  %tobool3.not = icmp eq ptr %call2, null
  br i1 %tobool3.not, label %if.then4, label %if.end5

if.then4:                                         ; preds = %if.end
  tail call void (ptr, ptr, i32, ptr, ptr, ...) @error_setg_internal(ptr noundef %errp, ptr noundef nonnull @.str, i32 noundef 2444, ptr noundef nonnull @__func__.qmp_query_rocker_of_dpa_flows, ptr noundef nonnull @.str.2, ptr noundef %name) #18
  br label %return

if.end5:                                          ; preds = %if.end
  %call6 = tail call ptr @world_private(ptr noundef nonnull %call2) #18
  %flow_tbl = getelementptr inbounds nuw i8, ptr %call6, i64 8
  %0 = load ptr, ptr %flow_tbl, align 8
  call void @g_hash_table_foreach(ptr noundef %0, ptr noundef nonnull @of_dpa_flow_fill, ptr noundef nonnull %fill_context) #18
  %1 = load ptr, ptr %fill_context, align 8
  br label %return

return:                                           ; preds = %if.end5, %if.then4, %if.then
  %retval.0 = phi ptr [ %1, %if.end5 ], [ null, %if.then4 ], [ null, %if.then ]
  ret ptr %retval.0
}